; Function Attrs: mustprogress uwtable
define hidden noundef ptr @pj_cart(ptr noundef writeonly %0) local_unnamed_addr #0 {
  %.not = icmp eq ptr %0, null
  br i1 %.not, label %7, label %2

2:                                                ; preds = %1
  %3 = getelementptr inbounds nuw i8, ptr %0, i64 120
  store ptr @_ZL9cartesian6PJ_LPZP8PJconsts, ptr %3, align 8, !tbaa !3
  %4 = getelementptr inbounds nuw i8, ptr %0, i64 128
  store ptr @_ZL8geodetic6PJ_XYZP8PJconsts, ptr %4, align 8, !tbaa !36
  %5 = getelementptr inbounds nuw i8, ptr %0, i64 104
  store ptr @_ZL12cart_forward5PJ_LPP8PJconsts, ptr %5, align 8, !tbaa !37
  %6 = getelementptr inbounds nuw i8, ptr %0, i64 112
  store ptr @_ZL12cart_reverse5PJ_XYP8PJconsts, ptr %6, align 8, !tbaa !38
  br label %.sink.split

7:                                                ; preds = %1
  %8 = tail call noundef ptr @_Z6pj_newv()
  %9 = icmp eq ptr %8, null
  br i1 %9, label %16, label %10

10:                                               ; preds = %7
  %11 = getelementptr inbounds nuw i8, ptr %8, i64 8
  store ptr @.str, ptr %11, align 8, !tbaa !39
  %12 = getelementptr inbounds nuw i8, ptr %8, i64 16
  store ptr @_ZL8des_cart, ptr %12, align 8, !tbaa !40
  %13 = getelementptr inbounds nuw i8, ptr %8, i64 360
  store i32 1, ptr %13, align 8, !tbaa !41
  br label %.sink.split

.sink.split:                                      ; preds = %2, %10
  %.sink15 = phi ptr [ %8, %10 ], [ %0, %2 ]
  %.sink = phi i32 [ 1, %10 ], [ 3, %2 ]
  %14 = getelementptr inbounds nuw i8, ptr %.sink15, i64 380
  store i32 4, ptr %14, align 4, !tbaa !42
  %15 = getelementptr inbounds nuw i8, ptr %.sink15, i64 384
  store i32 %.sink, ptr %15, align 8, !tbaa !43
  br label %16

16:                                               ; preds = %.sink.split, %7
  %.0 = phi ptr [ null, %7 ], [ %.sink15, %.sink.split ]
  ret ptr %.0
}